target datalayout = "e-m:e-p270:32:32-p271:32:32-p272:64:64-i64:64-i128:128-f80:128-n8:16:32:64-S128"
target triple = "x86_64-pc-linux-gnu"

%struct.Intb_Man_t_ = type { ptr, ptr, i32, i32, i32, i32, i32, i32, i32, ptr, ptr, ptr, ptr, ptr, ptr, ptr, ptr, i32, i32, ptr, ptr, ptr, i32, i32, i64, i64, i64 }
%struct.Sto_Cls_t_ = type { ptr, ptr, ptr, i32, i32, [0 x i32] }

@.str = private unnamed_addr constant [30 x i8] c"Clause ID = %d. Proof = %d. {\00", align 1
@.str.1 = private unnamed_addr constant [4 x i8] c" %d\00", align 1
@.str.2 = private unnamed_addr constant [4 x i8] c" }\0A\00", align 1

; Function Attrs: inlinehint nounwind uwtable
define internal i32 @Intb_ManProofGet(ptr noundef %0, ptr noundef %1) #4 {
  %3 = alloca ptr, align 8
  %4 = alloca ptr, align 8
  store ptr %0, ptr %3, align 8, !tbaa !3
  store ptr %1, ptr %4, align 8, !tbaa !28
  %5 = load ptr, ptr %3, align 8, !tbaa !3
  %6 = getelementptr inbounds nuw %struct.Intb_Man_t_, ptr %5, i32 0, i32 19
  %7 = load ptr, ptr %6, align 8, !tbaa !56
  %8 = load ptr, ptr %4, align 8, !tbaa !28
  %9 = getelementptr inbounds nuw %struct.Sto_Cls_t_, ptr %8, i32 0, i32 3
  %10 = load i32, ptr %9, align 8, !tbaa !59
  %11 = sext i32 %10 to i64
  %12 = getelementptr inbounds i32, ptr %7, i64 %11
  %13 = load i32, ptr %12, align 4, !tbaa !23
  ret i32 %13
}

; Function Attrs: nounwind uwtable
define void @Intb_ManPrintClause(ptr noundef %0, ptr noundef %1) #0 {
  %3 = alloca ptr, align 8
  %4 = alloca ptr, align 8
  %5 = alloca i32, align 4
  store ptr %0, ptr %3, align 8, !tbaa !3
  store ptr %1, ptr %4, align 8, !tbaa !28
  call void @llvm.lifetime.start.p0(i64 4, ptr %5) #9
  %6 = load ptr, ptr %4, align 8, !tbaa !28
  %7 = getelementptr inbounds nuw %struct.Sto_Cls_t_, ptr %6, i32 0, i32 3
  %8 = load i32, ptr %7, align 8, !tbaa !59
  %9 = load ptr, ptr %3, align 8, !tbaa !3
  %10 = load ptr, ptr %4, align 8, !tbaa !28
  %11 = call i32 @Intb_ManProofGet(ptr noundef %9, ptr noundef %10)
  %12 = call i32 (ptr, ...) @printf(ptr noundef @.str, i32 noundef %8, i32 noundef %11)
  store i32 0, ptr %5, align 4, !tbaa !23
  br label %13

13:                                               ; preds = %29, %2
  %14 = load i32, ptr %5, align 4, !tbaa !23
  %15 = load ptr, ptr %4, align 8, !tbaa !28
  %16 = getelementptr inbounds nuw %struct.Sto_Cls_t_, ptr %15, i32 0, i32 4
  %17 = load i32, ptr %16, align 4
  %18 = lshr i32 %17, 3
  %19 = and i32 %18, 16777215
  %20 = icmp slt i32 %14, %19
  br i1 %20, label %21, label %32

21:                                               ; preds = %13
  %22 = load ptr, ptr %4, align 8, !tbaa !28
  %23 = getelementptr inbounds nuw %struct.Sto_Cls_t_, ptr %22, i32 0, i32 5
  %24 = load i32, ptr %5, align 4, !tbaa !23
  %25 = sext i32 %24 to i64
  %26 = getelementptr inbounds [0 x i32], ptr %23, i64 0, i64 %25
  %27 = load i32, ptr %26, align 4, !tbaa !23
  %28 = call i32 (ptr, ...) @printf(ptr noundef @.str.1, i32 noundef %27)
  br label %29

29:                                               ; preds = %21
  %30 = load i32, ptr %5, align 4, !tbaa !23
  %31 = add nsw i32 %30, 1
  store i32 %31, ptr %5, align 4, !tbaa !23
  br label %13, !llvm.loop !60

32:                                               ; preds = %13
  %33 = call i32 (ptr, ...) @printf(ptr noundef @.str.2)
  call void @llvm.lifetime.end.p0(i64 4, ptr %5) #9
  ret void
}